; Function Attrs: nounwind uwtable
define i32 @Cba_BlastLess(ptr noundef %0, ptr noundef readonly captures(none) %1, ptr noundef readonly captures(none) %2, i32 noundef %3) local_unnamed_addr #0 {
  %5 = alloca i32, align 4
  %6 = alloca i32, align 4
  %7 = icmp eq i32 %3, 0
  br i1 %7, label %10, label %8

8:                                                ; preds = %4
  call void @Cba_BlastLess_rec(ptr noundef %0, ptr noundef %1, ptr noundef %2, i32 noundef %3, ptr noundef nonnull %5, ptr noundef nonnull %6)
  %9 = load i32, ptr %5, align 4
  br label %10

10:                                               ; preds = %4, %8
  %.0 = phi i32 [ %9, %8 ], [ 0, %4 ]
  ret i32 %.0
}